; Function Attrs: mustprogress nofree norecurse nosync nounwind willreturn memory(argmem: readwrite) uwtable
define void @_ZN4toku8locktree14set_comparatorERKNS_10comparatorE(ptr noundef nonnull writeonly align 8 captures(none) dereferenceable(400) initializes((24, 41)) %0, ptr noundef nonnull readonly align 8 captures(none) dereferenceable(17) %1) local_unnamed_addr #12 align 2 {
  %3 = getelementptr inbounds nuw i8, ptr %0, i64 24
  %4 = load ptr, ptr %1, align 8, !tbaa !39
  %5 = getelementptr inbounds nuw i8, ptr %1, i64 8
  %6 = load ptr, ptr %5, align 8, !tbaa !40
  %7 = getelementptr inbounds nuw i8, ptr %1, i64 16
  %8 = load i8, ptr %7, align 8, !tbaa !41
  store ptr %4, ptr %3, align 8, !tbaa !39
  %9 = getelementptr inbounds nuw i8, ptr %0, i64 32
  store ptr %6, ptr %9, align 8, !tbaa !40
  %10 = getelementptr inbounds nuw i8, ptr %0, i64 40
  store i8 %8, ptr %10, align 8, !tbaa !41
  ret void
}